target datalayout = "e-m:e-p270:32:32-p271:32:32-p272:64:64-i64:64-i128:128-f80:128-n8:16:32:64-S128"
target triple = "x86_64-pc-linux-gnu"

%struct.ggml_backend_i = type { ptr, ptr, ptr, ptr, ptr, ptr, ptr, ptr, ptr, ptr, ptr, ptr, ptr }
%struct.ggml_backend_cpu_context = type { i32, ptr, ptr, i64, ptr, ptr }
%struct.ggml_backend = type { ptr, %struct.ggml_backend_i, ptr, ptr }

@_ZZL21ggml_backend_cpu_guidvE4guid = internal global [16 x i8] c"\AAg\C7C\96\E6\A3\8A\E3\AF\EA\926\BC\FC\89", align 16

; Function Attrs: mustprogress uwtable
define ptr @ggml_backend_cpu_reg() #0 {
  call void @ggml_cpu_init()
  ret ptr @_ZZ20ggml_backend_cpu_regE20ggml_backend_cpu_reg
}

; Function Attrs: mustprogress nounwind uwtable
define internal noundef ptr @_ZL21ggml_backend_cpu_guidv() #4 {
  ret ptr @_ZZL21ggml_backend_cpu_guidvE4guid
}

; Function Attrs: mustprogress uwtable
define ptr @ggml_backend_cpu_init() #0 personality ptr @__gxx_personality_v0 {
  %1 = alloca ptr, align 8
  %2 = alloca ptr, align 8
  %3 = alloca i32, align 4
  %4 = alloca ptr, align 8
  %5 = alloca ptr, align 8
  %6 = alloca i32, align 4
  call void @ggml_cpu_init()
  call void @llvm.lifetime.start.p0(i64 8, ptr %2) #1
  %7 = call noalias noundef nonnull ptr @_Znwm(i64 noundef 48) #17
  store ptr %7, ptr %2, align 8, !tbaa !43
  %8 = load ptr, ptr %2, align 8, !tbaa !43
  %9 = icmp eq ptr %8, null
  br i1 %9, label %10, label %11

10:                                               ; preds = %0
  store ptr null, ptr %1, align 8
  store i32 1, ptr %3, align 4
  br label %50

11:                                               ; preds = %0
  %12 = load ptr, ptr %2, align 8, !tbaa !43
  %13 = getelementptr inbounds nuw %struct.ggml_backend_cpu_context, ptr %12, i32 0, i32 0
  store i32 4, ptr %13, align 8, !tbaa !45
  %14 = load ptr, ptr %2, align 8, !tbaa !43
  %15 = getelementptr inbounds nuw %struct.ggml_backend_cpu_context, ptr %14, i32 0, i32 1
  store ptr null, ptr %15, align 8, !tbaa !49
  %16 = load ptr, ptr %2, align 8, !tbaa !43
  %17 = getelementptr inbounds nuw %struct.ggml_backend_cpu_context, ptr %16, i32 0, i32 2
  store ptr null, ptr %17, align 8, !tbaa !50
  %18 = load ptr, ptr %2, align 8, !tbaa !43
  %19 = getelementptr inbounds nuw %struct.ggml_backend_cpu_context, ptr %18, i32 0, i32 3
  store i64 0, ptr %19, align 8, !tbaa !51
  %20 = load ptr, ptr %2, align 8, !tbaa !43
  %21 = getelementptr inbounds nuw %struct.ggml_backend_cpu_context, ptr %20, i32 0, i32 4
  store ptr null, ptr %21, align 8, !tbaa !52
  %22 = load ptr, ptr %2, align 8, !tbaa !43
  %23 = getelementptr inbounds nuw %struct.ggml_backend_cpu_context, ptr %22, i32 0, i32 5
  store ptr null, ptr %23, align 8, !tbaa !53
  call void @llvm.lifetime.start.p0(i64 8, ptr %4) #1
  %24 = call noalias noundef nonnull ptr @_Znwm(i64 noundef 128) #17
  %25 = getelementptr inbounds nuw %struct.ggml_backend, ptr %24, i32 0, i32 0
  %26 = invoke noundef ptr @_ZL21ggml_backend_cpu_guidv()
          to label %27 unwind label %43

27:                                               ; preds = %11
  store ptr %26, ptr %25, align 16, !tbaa !54
  %28 = getelementptr inbounds nuw %struct.ggml_backend, ptr %24, i32 0, i32 1
  call void @llvm.memcpy.p0.p0.i64(ptr align 8 %28, ptr align 8 @_ZL18ggml_backend_cpu_i, i64 104, i1 false), !tbaa.struct !58
  %29 = getelementptr inbounds nuw %struct.ggml_backend, ptr %24, i32 0, i32 2
  %30 = invoke ptr @ggml_backend_cpu_reg()
          to label %31 unwind label %43

31:                                               ; preds = %27
  %32 = invoke ptr @ggml_backend_reg_dev_get(ptr noundef %30, i64 noundef 0)
          to label %33 unwind label %43

33:                                               ; preds = %31
  store ptr %32, ptr %29, align 16, !tbaa !59
  %34 = getelementptr inbounds nuw %struct.ggml_backend, ptr %24, i32 0, i32 3
  %35 = load ptr, ptr %2, align 8, !tbaa !43
  store ptr %35, ptr %34, align 8, !tbaa !60
  store ptr %24, ptr %4, align 8, !tbaa !61
  %36 = load ptr, ptr %4, align 8, !tbaa !61
  %37 = icmp eq ptr %36, null
  br i1 %37, label %38, label %47

38:                                               ; preds = %33
  %39 = load ptr, ptr %2, align 8, !tbaa !43
  %40 = icmp eq ptr %39, null
  br i1 %40, label %42, label %41

41:                                               ; preds = %38
  call void @_ZdlPvm(ptr noundef %39, i64 noundef 48) #18
  br label %42

42:                                               ; preds = %41, %38
  store ptr null, ptr %1, align 8
  store i32 1, ptr %3, align 4
  br label %49

43:                                               ; preds = %31, %27, %11
  %44 = landingpad { ptr, i32 }
          cleanup
  %45 = extractvalue { ptr, i32 } %44, 0
  store ptr %45, ptr %5, align 8
  %46 = extractvalue { ptr, i32 } %44, 1
  store i32 %46, ptr %6, align 4
  call void @_ZdlPvm(ptr noundef %24, i64 noundef 128) #18
  call void @llvm.lifetime.end.p0(i64 8, ptr %4) #1
  call void @llvm.lifetime.end.p0(i64 8, ptr %2) #1
  br label %52

47:                                               ; preds = %33
  %48 = load ptr, ptr %4, align 8, !tbaa !61
  store ptr %48, ptr %1, align 8
  store i32 1, ptr %3, align 4
  br label %49

49:                                               ; preds = %47, %42
  call void @llvm.lifetime.end.p0(i64 8, ptr %4) #1
  br label %50

50:                                               ; preds = %49, %10
  call void @llvm.lifetime.end.p0(i64 8, ptr %2) #1
  %51 = load ptr, ptr %1, align 8
  ret ptr %51

52:                                               ; preds = %43
  %53 = load ptr, ptr %5, align 8
  %54 = load i32, ptr %6, align 4
  %55 = insertvalue { ptr, i32 } poison, ptr %53, 0
  %56 = insertvalue { ptr, i32 } %55, i32 %54, 1
  resume { ptr, i32 } %56
}

; Function Attrs: mustprogress uwtable
define internal noundef ptr @_ZL36ggml_backend_cpu_device_init_backendP19ggml_backend_devicePKc(ptr noundef %0, ptr noundef %1) #0 {
  %3 = alloca ptr, align 8
  %4 = alloca ptr, align 8
  store ptr %0, ptr %3, align 8, !tbaa !105
  store ptr %1, ptr %4, align 8, !tbaa !32
  %5 = call ptr @ggml_backend_cpu_init()
  ret ptr %5
}