; Function Attrs: mustprogress uwtable
define internal noundef nonnull ptr @_ZL36ggml_backend_cpu_device_init_backendP19ggml_backend_devicePKc(ptr readnone captures(none) %0, ptr readnone captures(none) %1) #0 personality ptr @__gxx_personality_v0 {
  tail call void @ggml_cpu_init()
  %3 = tail call noalias noundef nonnull dereferenceable(48) ptr @_Znwm(i64 noundef 48) #27
  store i32 4, ptr %3, align 8, !tbaa !16
  %4 = getelementptr inbounds nuw i8, ptr %3, i64 8
  tail call void @llvm.memset.p0.i64(ptr noundef nonnull align 8 dereferenceable(40) %4, i8 0, i64 40, i1 false)
  %5 = tail call noalias noundef nonnull dereferenceable(128) ptr @_Znwm(i64 noundef 128) #27
  store ptr @_ZZL21ggml_backend_cpu_guidvE4guid, ptr %5, align 16, !tbaa !22
  %6 = getelementptr inbounds nuw i8, ptr %5, i64 8
  tail call void @llvm.memcpy.p0.p0.i64(ptr noundef nonnull align 8 dereferenceable(104) %6, ptr noundef nonnull align 8 dereferenceable(104) @_ZL18ggml_backend_cpu_i, i64 104, i1 false), !tbaa.struct !26
  invoke void @ggml_cpu_init()
          to label %ggml_backend_cpu_reg.exit.i unwind label %8

ggml_backend_cpu_reg.exit.i:                      ; preds = %2
  %7 = invoke ptr @ggml_backend_reg_dev_get(ptr noundef nonnull @_ZZ20ggml_backend_cpu_regE20ggml_backend_cpu_reg, i64 noundef 0)
          to label %ggml_backend_cpu_init.exit unwind label %8

8:                                                ; preds = %ggml_backend_cpu_reg.exit.i, %2
  %9 = landingpad { ptr, i32 }
          cleanup
  tail call void @_ZdlPvm(ptr noundef nonnull %5, i64 noundef 128) #28
  resume { ptr, i32 } %9

ggml_backend_cpu_init.exit:                       ; preds = %ggml_backend_cpu_reg.exit.i
  %10 = getelementptr inbounds nuw i8, ptr %5, i64 112
  store ptr %7, ptr %10, align 16, !tbaa !28
  %11 = getelementptr inbounds nuw i8, ptr %5, i64 120
  store ptr %3, ptr %11, align 8, !tbaa !29
  ret ptr %5
}